target datalayout = "e-m:e-p270:32:32-p271:32:32-p272:64:64-i64:64-i128:128-f80:128-n8:16:32:64-S128"
target triple = "x86_64-pc-linux-gnu"

%struct.opj_jp2 = type { ptr, ptr, ptr, i32, i32, i32, i32, i32, i32, i32, i32, i32, i32, i32, i32, i32, i32, ptr, ptr, i64, i64, i32, i32, i32, %struct.opj_jp2_color, i32, i8, i8 }
%struct.opj_jp2_color = type { ptr, i32, ptr, ptr, i8 }

@.str.25 = private unnamed_addr constant [31 x i8] c"Failed to seek in the stream.\0A\00", align 1

; Function Attrs: nounwind uwtable
define internal i32 @opj_jp2_write_jp2c(ptr noundef %0, ptr noundef %1, ptr noundef %2) #0 {
  %4 = alloca i32, align 4
  %5 = alloca ptr, align 8
  %6 = alloca ptr, align 8
  %7 = alloca ptr, align 8
  %8 = alloca i64, align 8
  %9 = alloca [8 x i8], align 1
  %10 = alloca i32, align 4
  store ptr %0, ptr %5, align 8, !tbaa !3
  store ptr %1, ptr %6, align 8, !tbaa !8
  store ptr %2, ptr %7, align 8, !tbaa !12
  call void @llvm.lifetime.start.p0(i64 8, ptr %8) #5
  call void @llvm.lifetime.start.p0(i64 8, ptr %9) #5
  %11 = load ptr, ptr %6, align 8, !tbaa !8
  %12 = call i64 @opj_stream_tell(ptr noundef %11)
  store i64 %12, ptr %8, align 8, !tbaa !149
  %13 = getelementptr inbounds [8 x i8], ptr %9, i64 0, i64 0
  %14 = load i64, ptr %8, align 8, !tbaa !149
  %15 = load ptr, ptr %5, align 8, !tbaa !3
  %16 = getelementptr inbounds nuw %struct.opj_jp2, ptr %15, i32 0, i32 19
  %17 = load i64, ptr %16, align 8, !tbaa !150
  %18 = sub nsw i64 %14, %17
  %19 = trunc i64 %18 to i32
  call void @opj_write_bytes_LE(ptr noundef %13, i32 noundef %19, i32 noundef 4)
  %20 = getelementptr inbounds [8 x i8], ptr %9, i64 0, i64 0
  %21 = getelementptr inbounds i8, ptr %20, i64 4
  call void @opj_write_bytes_LE(ptr noundef %21, i32 noundef 1785737827, i32 noundef 4)
  %22 = load ptr, ptr %6, align 8, !tbaa !8
  %23 = load ptr, ptr %5, align 8, !tbaa !3
  %24 = getelementptr inbounds nuw %struct.opj_jp2, ptr %23, i32 0, i32 19
  %25 = load i64, ptr %24, align 8, !tbaa !150
  %26 = load ptr, ptr %7, align 8, !tbaa !12
  %27 = call i32 @opj_stream_seek(ptr noundef %22, i64 noundef %25, ptr noundef %26)
  %28 = icmp ne i32 %27, 0
  br i1 %28, label %32, label %29

29:                                               ; preds = %3
  %30 = load ptr, ptr %7, align 8, !tbaa !12
  %31 = call i32 (ptr, i32, ptr, ...) @opj_event_msg(ptr noundef %30, i32 noundef 1, ptr noundef @.str.25)
  store i32 0, ptr %4, align 4
  store i32 1, ptr %10, align 4
  br label %51

32:                                               ; preds = %3
  %33 = load ptr, ptr %6, align 8, !tbaa !8
  %34 = getelementptr inbounds [8 x i8], ptr %9, i64 0, i64 0
  %35 = load ptr, ptr %7, align 8, !tbaa !12
  %36 = call i64 @opj_stream_write_data(ptr noundef %33, ptr noundef %34, i64 noundef 8, ptr noundef %35)
  %37 = icmp ne i64 %36, 8
  br i1 %37, label %38, label %41

38:                                               ; preds = %32
  %39 = load ptr, ptr %7, align 8, !tbaa !12
  %40 = call i32 (ptr, i32, ptr, ...) @opj_event_msg(ptr noundef %39, i32 noundef 1, ptr noundef @.str.25)
  store i32 0, ptr %4, align 4
  store i32 1, ptr %10, align 4
  br label %51

41:                                               ; preds = %32
  %42 = load ptr, ptr %6, align 8, !tbaa !8
  %43 = load i64, ptr %8, align 8, !tbaa !149
  %44 = load ptr, ptr %7, align 8, !tbaa !12
  %45 = call i32 @opj_stream_seek(ptr noundef %42, i64 noundef %43, ptr noundef %44)
  %46 = icmp ne i32 %45, 0
  br i1 %46, label %50, label %47

47:                                               ; preds = %41
  %48 = load ptr, ptr %7, align 8, !tbaa !12
  %49 = call i32 (ptr, i32, ptr, ...) @opj_event_msg(ptr noundef %48, i32 noundef 1, ptr noundef @.str.25)
  store i32 0, ptr %4, align 4
  store i32 1, ptr %10, align 4
  br label %51

50:                                               ; preds = %41
  store i32 1, ptr %4, align 4
  store i32 1, ptr %10, align 4
  br label %51

51:                                               ; preds = %50, %47, %38, %29
  call void @llvm.lifetime.end.p0(i64 8, ptr %9) #5
  call void @llvm.lifetime.end.p0(i64 8, ptr %8) #5
  %52 = load i32, ptr %4, align 4
  ret i32 %52
}