; Function Attrs: nounwind uwtable
define internal range(i32 0, 2) i32 @opj_jp2_write_jp2c(ptr noundef readonly captures(none) %0, ptr noundef %1, ptr noundef %2) #0 {
  %4 = alloca [8 x i8], align 1
  call void @llvm.lifetime.start.p0(i64 8, ptr nonnull %4) #6
  %5 = tail call i64 @opj_stream_tell(ptr noundef %1) #6
  %6 = getelementptr inbounds nuw i8, ptr %0, i64 96
  %7 = load i64, ptr %6, align 8, !tbaa !121
  %8 = sub nsw i64 %5, %7
  %9 = trunc i64 %8 to i32
  call void @opj_write_bytes_LE(ptr noundef nonnull %4, i32 noundef %9, i32 noundef 4) #6
  %10 = getelementptr inbounds nuw i8, ptr %4, i64 4
  call void @opj_write_bytes_LE(ptr noundef nonnull %10, i32 noundef 1785737827, i32 noundef 4) #6
  %11 = load i64, ptr %6, align 8, !tbaa !121
  %12 = call i32 @opj_stream_seek(ptr noundef %1, i64 noundef %11, ptr noundef %2) #6
  %.not = icmp eq i32 %12, 0
  br i1 %.not, label %.sink.split, label %13

13:                                               ; preds = %3
  %14 = call i64 @opj_stream_write_data(ptr noundef %1, ptr noundef nonnull %4, i64 noundef 8, ptr noundef %2) #6
  %.not14 = icmp eq i64 %14, 8
  br i1 %.not14, label %15, label %.sink.split

15:                                               ; preds = %13
  %16 = call i32 @opj_stream_seek(ptr noundef %1, i64 noundef %5, ptr noundef %2) #6
  %.not15 = icmp eq i32 %16, 0
  br i1 %.not15, label %.sink.split, label %18

.sink.split:                                      ; preds = %15, %13, %3
  %17 = call i32 (ptr, i32, ptr, ...) @opj_event_msg(ptr noundef %2, i32 noundef 1, ptr noundef nonnull @.str.25) #6
  br label %18

18:                                               ; preds = %.sink.split, %15
  %.0 = phi i32 [ 1, %15 ], [ 0, %.sink.split ]
  call void @llvm.lifetime.end.p0(i64 8, ptr nonnull %4) #6
  ret i32 %.0
}